; Function Attrs: mustprogress uwtable
define hidden void @_ZNK4cvc58internal7printer4smt211Smt2Printer27toStreamCmdBlockModelValuesERSoRKSt6vectorINS0_12NodeTemplateILb1EEESaIS7_EE(ptr nonnull readnone align 8 captures(none) %0, ptr noundef nonnull align 8 dereferenceable(8) %1, ptr noundef nonnull readonly align 8 captures(none) dereferenceable(24) %2) unnamed_addr #3 align 2 personality ptr @__gxx_personality_v0 {
  %4 = alloca i8, align 1
  %5 = tail call noundef nonnull align 8 dereferenceable(8) ptr @_ZSt16__ostream_insertIcSt11char_traitsIcEERSt13basic_ostreamIT_T0_ES6_PKS3_l(ptr noundef nonnull align 8 dereferenceable(8) %1, ptr noundef nonnull @.str.408, i64 noundef 21)
  %6 = getelementptr inbounds nuw i8, ptr %2, i64 8
  %7 = load ptr, ptr %6, align 8, !tbaa !23
  %8 = load ptr, ptr %2, align 8, !tbaa !25
  %invariant.gep = getelementptr i8, ptr %1, i64 16
  %.not15 = icmp eq ptr %7, %8
  br i1 %.not15, label %._crit_edge, label %.lr.ph.preheader

.lr.ph.preheader:                                 ; preds = %3
  %9 = ptrtoint ptr %7 to i64
  %10 = ptrtoint ptr %8 to i64
  %11 = sub i64 %9, %10
  %12 = ashr exact i64 %11, 3
  %umax = tail call i64 @llvm.umax.i64(i64 %12, i64 1)
  br label %.lr.ph

._crit_edge:                                      ; preds = %_ZN4cvc58internallsERSoNS0_12NodeTemplateILb0EEE.exit, %3
  %13 = call noundef nonnull align 8 dereferenceable(8) ptr @_ZSt16__ostream_insertIcSt11char_traitsIcEERSt13basic_ostreamIT_T0_ES6_PKS3_l(ptr noundef nonnull align 8 dereferenceable(8) %1, ptr noundef nonnull @.str.62, i64 noundef 2)
  ret void

.lr.ph:                                           ; preds = %.lr.ph.preheader, %_ZN4cvc58internallsERSoNS0_12NodeTemplateILb0EEE.exit
  %.014 = phi i64 [ %26, %_ZN4cvc58internallsERSoNS0_12NodeTemplateILb0EEE.exit ], [ 0, %.lr.ph.preheader ]
  %.not = icmp eq i64 %.014, 0
  br i1 %.not, label %.split, label %.split13

.split:                                           ; preds = %.lr.ph
  %14 = load ptr, ptr %2, align 8, !tbaa !25
  br label %_ZN4cvc58internallsERSoNS0_12NodeTemplateILb0EEE.exit

.split13:                                         ; preds = %.lr.ph
  call void @llvm.lifetime.start.p0(i64 1, ptr nonnull %4)
  store i8 32, ptr %4, align 1, !tbaa !15
  %15 = load ptr, ptr %1, align 8, !tbaa !40
  %16 = getelementptr i8, ptr %15, i64 -24
  %17 = load i64, ptr %16, align 8
  %gep = getelementptr i8, ptr %invariant.gep, i64 %17
  %18 = load i64, ptr %gep, align 8, !tbaa !55
  %.not.i = icmp eq i64 %18, 0
  br i1 %.not.i, label %21, label %19

19:                                               ; preds = %.split13
  %20 = call noundef nonnull align 8 dereferenceable(8) ptr @_ZSt16__ostream_insertIcSt11char_traitsIcEERSt13basic_ostreamIT_T0_ES6_PKS3_l(ptr noundef nonnull align 8 dereferenceable(8) %1, ptr noundef nonnull %4, i64 noundef 1)
  br label %_ZStlsISt11char_traitsIcEERSt13basic_ostreamIcT_ES5_c.exit

21:                                               ; preds = %.split13
  %22 = call noundef nonnull align 8 dereferenceable(8) ptr @_ZNSo3putEc(ptr noundef nonnull align 8 dereferenceable(8) %1, i8 noundef signext 32)
  br label %_ZStlsISt11char_traitsIcEERSt13basic_ostreamIcT_ES5_c.exit

_ZStlsISt11char_traitsIcEERSt13basic_ostreamIcT_ES5_c.exit: ; preds = %19, %21
  call void @llvm.lifetime.end.p0(i64 1, ptr nonnull %4)
  %23 = load ptr, ptr %2, align 8, !tbaa !25
  %24 = getelementptr inbounds nuw %"class.cvc5::internal::NodeTemplate.13", ptr %23, i64 %.014
  br label %_ZN4cvc58internallsERSoNS0_12NodeTemplateILb0EEE.exit

_ZN4cvc58internallsERSoNS0_12NodeTemplateILb0EEE.exit: ; preds = %.split, %_ZStlsISt11char_traitsIcEERSt13basic_ostreamIcT_ES5_c.exit
  %phi.call = phi ptr [ %14, %.split ], [ %24, %_ZStlsISt11char_traitsIcEERSt13basic_ostreamIcT_ES5_c.exit ]
  %25 = load ptr, ptr %phi.call, align 8, !tbaa !17
  call void @_ZNK4cvc58internal4expr9NodeValue8toStreamERSo(ptr noundef nonnull align 8 dereferenceable(24) %25, ptr noundef nonnull align 8 dereferenceable(8) %1)
  %26 = add nuw i64 %.014, 1
  %exitcond.not = icmp eq i64 %26, %umax
  br i1 %exitcond.not, label %._crit_edge, label %.lr.ph, !llvm.loop !310
}